; Function Attrs: nounwind uwtable
define internal fastcc range(i32 0, 28) i32 @set_login(ptr noundef readonly captures(none) %0, ptr noundef nonnull captures(none) %1) unnamed_addr #0 {
  %3 = getelementptr inbounds nuw i8, ptr %1, i64 928
  %4 = load ptr, ptr %3, align 8, !tbaa !203
  %5 = getelementptr inbounds nuw i8, ptr %4, i64 148
  %6 = load i32, ptr %5, align 4, !tbaa !224
  %7 = and i32 %6, 32
  %.not = icmp eq i32 %7, 0
  br i1 %.not, label %11, label %8

8:                                                ; preds = %2
  %9 = getelementptr inbounds nuw i8, ptr %0, i64 4832
  %10 = load ptr, ptr %9, align 8, !tbaa !128
  %.not14 = icmp eq ptr %10, null
  br i1 %.not14, label %12, label %11

11:                                               ; preds = %8, %2
  br label %12

12:                                               ; preds = %8, %11
  %.011 = phi ptr [ @.str.21, %11 ], [ @.str.55, %8 ]
  %.0 = phi ptr [ @.str.21, %11 ], [ @.str.56, %8 ]
  %13 = getelementptr inbounds nuw i8, ptr %1, i64 480
  %14 = load ptr, ptr %13, align 8, !tbaa !185
  %.not15 = icmp eq ptr %14, null
  br i1 %.not15, label %15, label %18

15:                                               ; preds = %12
  %16 = load ptr, ptr @Curl_cstrdup, align 8, !tbaa !4
  %17 = tail call ptr %16(ptr noundef nonnull %.011) #12
  store ptr %17, ptr %13, align 8, !tbaa !185
  %.not16 = icmp eq ptr %17, null
  br i1 %.not16, label %24, label %18

18:                                               ; preds = %15, %12
  %19 = getelementptr inbounds nuw i8, ptr %1, i64 488
  %20 = load ptr, ptr %19, align 8, !tbaa !186
  %.not17 = icmp eq ptr %20, null
  br i1 %.not17, label %21, label %24

21:                                               ; preds = %18
  %22 = load ptr, ptr @Curl_cstrdup, align 8, !tbaa !4
  %23 = tail call ptr %22(ptr noundef nonnull %.0) #12
  store ptr %23, ptr %19, align 8, !tbaa !186
  %.not18 = icmp eq ptr %23, null
  %spec.select = select i1 %.not18, i32 27, i32 0
  br label %24

24:                                               ; preds = %21, %18, %15
  %.013 = phi i32 [ 27, %15 ], [ 0, %18 ], [ %spec.select, %21 ]
  ret i32 %.013
}